; Listing generated by Microsoft (R) Optimizing Compiler Version 15.00.21022.08 

	TITLE	c:\dev\dosbox-x\vs2008\zlib\gzclose.c
	.686P
	.XMM
	include listing.inc
	.model	flat

INCLUDELIB OLDNAMES

PUBLIC	_gzclose@4
; Function compile flags: /Odtp
; File c:\dev\dosbox-x\vs2008\zlib\gzclose.c
;	COMDAT _gzclose@4
_TEXT	SEGMENT
tv71 = -8						; size = 4
_state$ = -4						; size = 4
_file$ = 8						; size = 4
_gzclose@4 PROC						; COMDAT

; 13   : {

  00000	55		 push	 ebp
  00001	8b ec		 mov	 ebp, esp
  00003	83 ec 08	 sub	 esp, 8

; 14   : #ifndef NO_GZCOMPRESS
; 15   :     gz_statep state;
; 16   : 
; 17   :     if (file == NULL)

  00006	83 7d 08 00	 cmp	 DWORD PTR _file$[ebp], 0
  0000a	75 07		 jne	 SHORT $LN1@gzclose

; 18   :         return Z_STREAM_ERROR;

  0000c	b8 fe ff ff ff	 mov	 eax, -2			; fffffffeH
  00011	eb 2f		 jmp	 SHORT $LN2@gzclose
$LN1@gzclose:

; 19   :     state = (gz_statep)file;

  00013	8b 45 08	 mov	 eax, DWORD PTR _file$[ebp]
  00016	89 45 fc	 mov	 DWORD PTR _state$[ebp], eax

; 20   : 
; 21   :     return state->mode == GZ_READ ? gzclose_r(file) : gzclose_w(file);

  00019	8b 4d fc	 mov	 ecx, DWORD PTR _state$[ebp]
  0001c	81 79 10 4f 1c
	00 00		 cmp	 DWORD PTR [ecx+16], 7247 ; 00001c4fH
  00023	75 0e		 jne	 SHORT $LN4@gzclose
  00025	8b 55 08	 mov	 edx, DWORD PTR _file$[ebp]
  00028	52		 push	 edx
  00029	e8 00 00 00 00	 call	 _gzclose_r@4
  0002e	89 45 f8	 mov	 DWORD PTR tv71[ebp], eax
  00031	eb 0c		 jmp	 SHORT $LN5@gzclose
$LN4@gzclose:
  00033	8b 45 08	 mov	 eax, DWORD PTR _file$[ebp]
  00036	50		 push	 eax
  00037	e8 00 00 00 00	 call	 _gzclose_w@4
  0003c	89 45 f8	 mov	 DWORD PTR tv71[ebp], eax
$LN5@gzclose:
  0003f	8b 45 f8	 mov	 eax, DWORD PTR tv71[ebp]
$LN2@gzclose:

; 22   : #else
; 23   :     return gzclose_r(file);
; 24   : #endif
; 25   : }

  00042	8b e5		 mov	 esp, ebp
  00044	5d		 pop	 ebp
  00045	c2 04 00	 ret	 4
_gzclose@4 ENDP
END
